target datalayout = "e-m:e-p270:32:32-p271:32:32-p272:64:64-i64:64-i128:128-f80:128-n8:16:32:64-S128"
target triple = "x86_64-pc-linux-gnu"

%class.int3 = type { i32, i32, i32 }
%class.btHullTriangle = type { %class.int3, %class.int3, i32, i32, float }
%class.HullLibrary = type { %class.btAlignedObjectArray.4, %class.btAlignedObjectArray.6 }
%class.btAlignedObjectArray.4 = type <{ [4 x i8], i32, i32, [4 x i8], ptr, i8, [7 x i8] }>
%class.btAlignedObjectArray.6 = type <{ [4 x i8], i32, i32, [4 x i8], ptr, i8, [7 x i8] }>

; Function Attrs: mustprogress nounwind uwtable
define linkonce_odr dso_local void @_ZN14btHullTriangleD2Ev(ptr noundef nonnull align 4 dereferenceable(36) %0) unnamed_addr #1 comdat align 2 {
  %2 = alloca ptr, align 8
  store ptr %0, ptr %2, align 8, !tbaa !64
  ret void
}

; Function Attrs: inlinehint mustprogress nounwind uwtable
define linkonce_odr dso_local noundef nonnull align 8 dereferenceable(8) ptr @_ZN20btAlignedObjectArrayIP14btHullTriangleEixEi(ptr noundef nonnull align 8 dereferenceable(25) %0, i32 noundef %1) #5 comdat align 2 {
  %3 = alloca ptr, align 8
  %4 = alloca i32, align 4
  store ptr %0, ptr %3, align 8, !tbaa !70
  store i32 %1, ptr %4, align 4, !tbaa !9
  %5 = load ptr, ptr %3, align 8
  %6 = getelementptr inbounds nuw %class.btAlignedObjectArray.4, ptr %5, i32 0, i32 4
  %7 = load ptr, ptr %6, align 8, !tbaa !72
  %8 = load i32, ptr %4, align 4, !tbaa !9
  %9 = sext i32 %8 to i64
  %10 = getelementptr inbounds ptr, ptr %7, i64 %9
  ret ptr %10
}

; Function Attrs: mustprogress uwtable
define dso_local void @_ZN11HullLibrary18deAllocateTriangleEP14btHullTriangle(ptr noundef nonnull align 8 dereferenceable(64) %0, ptr noundef %1) #8 align 2 {
  %3 = alloca ptr, align 8
  %4 = alloca ptr, align 8
  store ptr %0, ptr %3, align 8, !tbaa !67
  store ptr %1, ptr %4, align 8, !tbaa !64
  %5 = load ptr, ptr %3, align 8
  %6 = getelementptr inbounds nuw %class.HullLibrary, ptr %5, i32 0, i32 0
  %7 = load ptr, ptr %4, align 8, !tbaa !64
  %8 = getelementptr inbounds nuw %class.btHullTriangle, ptr %7, i32 0, i32 2
  %9 = load i32, ptr %8, align 4, !tbaa !76
  %10 = call noundef nonnull align 8 dereferenceable(8) ptr @_ZN20btAlignedObjectArrayIP14btHullTriangleEixEi(ptr noundef nonnull align 8 dereferenceable(25) %6, i32 noundef %9)
  store ptr null, ptr %10, align 8, !tbaa !64
  %11 = load ptr, ptr %4, align 8, !tbaa !64
  call void @_ZN14btHullTriangleD2Ev(ptr noundef nonnull align 4 dereferenceable(36) %11) #14
  %12 = load ptr, ptr %4, align 8, !tbaa !64
  call void @_Z21btAlignedFreeInternalPv(ptr noundef %12)
  ret void
}