; Function Attrs: mustprogress uwtable
define dso_local void @_ZN11HullLibrary18deAllocateTriangleEP14btHullTriangle(ptr noundef nonnull readonly align 8 captures(none) dereferenceable(64) %0, ptr noundef %1) local_unnamed_addr #4 align 2 {
  %3 = getelementptr inbounds nuw i8, ptr %1, i64 24
  %4 = load i32, ptr %3, align 4, !tbaa !58
  %5 = getelementptr inbounds nuw i8, ptr %0, i64 16
  %6 = load ptr, ptr %5, align 8, !tbaa !51
  %7 = sext i32 %4 to i64
  %8 = getelementptr inbounds ptr, ptr %6, i64 %7
  store ptr null, ptr %8, align 8, !tbaa !55
  tail call void @_Z21btAlignedFreeInternalPv(ptr noundef nonnull %1)
  ret void
}